; ModuleID = '22/320.c'
source_filename = "22/320.c"
target datalayout = "e-m:e-p270:32:32-p271:32:32-p272:64:64-i64:64-f80:128-n8:16:32:64-S128"
target triple = "x86_64-pc-linux-gnu"

@.str = private unnamed_addr constant [3 x i8] c"No\00", align 1
@.str.1 = private unnamed_addr constant [3 x i8] c"%d\00", align 1

; Function Attrs: noinline nounwind uwtable
define dso_local void @main() #0 {
  %1 = alloca [1000 x i8], align 16
  %2 = alloca [300 x i32], align 16
  %3 = alloca i32, align 4
  %4 = alloca i32, align 4
  %5 = alloca i32, align 4
  %6 = alloca i32, align 4
  %7 = bitcast [300 x i32]* %2 to i8*
  call void @llvm.memset.p0i8.i64(i8* align 16 %7, i8 0, i64 1200, i1 false)
  %8 = getelementptr inbounds [1000 x i8], [1000 x i8]* %1, i64 0, i64 0
  %9 = call i32 (i8*, ...) bitcast (i32 (...)* @gets to i32 (i8*, ...)*)(i8* %8)
  %10 = getelementptr inbounds [1000 x i8], [1000 x i8]* %1, i64 0, i64 0
  %11 = call i64 @strlen(i8* %10) #4
  %12 = trunc i64 %11 to i32
  store i32 %12, i32* %5, align 4
  store i32 0, i32* %3, align 4
  store i32 0, i32* %4, align 4
  br label %13

13:                                               ; preds = %44, %0
  %14 = load i32, i32* %3, align 4
  %15 = load i32, i32* %5, align 4
  %16 = icmp slt i32 %14, %15
  br i1 %16, label %17, label %47

17:                                               ; preds = %13
  %18 = load i32, i32* %3, align 4
  %19 = sext i32 %18 to i64
  %20 = getelementptr inbounds [1000 x i8], [1000 x i8]* %1, i64 0, i64 %19
  %21 = load i8, i8* %20, align 1
  %22 = sext i8 %21 to i32
  %23 = icmp eq i32 %22, 44
  br i1 %23, label %24, label %27

24:                                               ; preds = %17
  %25 = load i32, i32* %4, align 4
  %26 = add nsw i32 %25, 1
  store i32 %26, i32* %4, align 4
  br label %43

27:                                               ; preds = %17
  %28 = load i32, i32* %4, align 4
  %29 = sext i32 %28 to i64
  %30 = getelementptr inbounds [300 x i32], [300 x i32]* %2, i64 0, i64 %29
  %31 = load i32, i32* %30, align 4
  %32 = mul nsw i32 %31, 10
  %33 = load i32, i32* %3, align 4
  %34 = sext i32 %33 to i64
  %35 = getelementptr inbounds [1000 x i8], [1000 x i8]* %1, i64 0, i64 %34
  %36 = load i8, i8* %35, align 1
  %37 = sext i8 %36 to i32
  %38 = sub nsw i32 %37, 48
  %39 = add nsw i32 %32, %38
  %40 = load i32, i32* %4, align 4
  %41 = sext i32 %40 to i64
  %42 = getelementptr inbounds [300 x i32], [300 x i32]* %2, i64 0, i64 %41
  store i32 %39, i32* %42, align 4
  br label %43

43:                                               ; preds = %27, %24
  br label %44

44:                                               ; preds = %43
  %45 = load i32, i32* %3, align 4
  %46 = add nsw i32 %45, 1
  store i32 %46, i32* %3, align 4
  br label %13

47:                                               ; preds = %13
  %48 = getelementptr inbounds [300 x i32], [300 x i32]* %2, i64 0, i64 0
  %49 = load i32, i32* %48, align 16
  store i32 %49, i32* %6, align 4
  store i32 0, i32* %3, align 4
  br label %50

50:                                               ; preds = %70, %47
  %51 = load i32, i32* %3, align 4
  %52 = load i32, i32* %4, align 4
  %53 = icmp sle i32 %51, %52
  br i1 %53, label %54, label %73

54:                                               ; preds = %50
  %55 = load i32, i32* %3, align 4
  %56 = sext i32 %55 to i64
  %57 = getelementptr inbounds [300 x i32], [300 x i32]* %2, i64 0, i64 %56
  %58 = load i32, i32* %57, align 4
  %59 = load i32, i32* %6, align 4
  %60 = icmp sgt i32 %58, %59
  br i1 %60, label %61, label %66

61:                                               ; preds = %54
  %62 = load i32, i32* %3, align 4
  %63 = sext i32 %62 to i64
  %64 = getelementptr inbounds [300 x i32], [300 x i32]* %2, i64 0, i64 %63
  %65 = load i32, i32* %64, align 4
  br label %68

66:                                               ; preds = %54
  %67 = load i32, i32* %6, align 4
  br label %68

68:                                               ; preds = %66, %61
  %69 = phi i32 [ %65, %61 ], [ %67, %66 ]
  store i32 %69, i32* %6, align 4
  br label %70

70:                                               ; preds = %68
  %71 = load i32, i32* %3, align 4
  %72 = add nsw i32 %71, 1
  store i32 %72, i32* %3, align 4
  br label %50

73:                                               ; preds = %50
  store i32 0, i32* %3, align 4
  br label %74

74:                                               ; preds = %90, %73
  %75 = load i32, i32* %3, align 4
  %76 = load i32, i32* %4, align 4
  %77 = icmp sle i32 %75, %76
  br i1 %77, label %78, label %93

78:                                               ; preds = %74
  %79 = load i32, i32* %3, align 4
  %80 = sext i32 %79 to i64
  %81 = getelementptr inbounds [300 x i32], [300 x i32]* %2, i64 0, i64 %80
  %82 = load i32, i32* %81, align 4
  %83 = load i32, i32* %6, align 4
  %84 = icmp eq i32 %82, %83
  br i1 %84, label %85, label %89

85:                                               ; preds = %78
  %86 = load i32, i32* %3, align 4
  %87 = sext i32 %86 to i64
  %88 = getelementptr inbounds [300 x i32], [300 x i32]* %2, i64 0, i64 %87
  store i32 -1, i32* %88, align 4
  br label %89

89:                                               ; preds = %85, %78
  br label %90

90:                                               ; preds = %89
  %91 = load i32, i32* %3, align 4
  %92 = add nsw i32 %91, 1
  store i32 %92, i32* %3, align 4
  br label %74

93:                                               ; preds = %74
  %94 = getelementptr inbounds [300 x i32], [300 x i32]* %2, i64 0, i64 0
  %95 = load i32, i32* %94, align 16
  store i32 %95, i32* %6, align 4
  store i32 0, i32* %3, align 4
  br label %96

96:                                               ; preds = %116, %93
  %97 = load i32, i32* %3, align 4
  %98 = load i32, i32* %4, align 4
  %99 = icmp sle i32 %97, %98
  br i1 %99, label %100, label %119

100:                                              ; preds = %96
  %101 = load i32, i32* %3, align 4
  %102 = sext i32 %101 to i64
  %103 = getelementptr inbounds [300 x i32], [300 x i32]* %2, i64 0, i64 %102
  %104 = load i32, i32* %103, align 4
  %105 = load i32, i32* %6, align 4
  %106 = icmp sgt i32 %104, %105
  br i1 %106, label %107, label %112

107:                                              ; preds = %100
  %108 = load i32, i32* %3, align 4
  %109 = sext i32 %108 to i64
  %110 = getelementptr inbounds [300 x i32], [300 x i32]* %2, i64 0, i64 %109
  %111 = load i32, i32* %110, align 4
  br label %114

112:                                              ; preds = %100
  %113 = load i32, i32* %6, align 4
  br label %114

114:                                              ; preds = %112, %107
  %115 = phi i32 [ %111, %107 ], [ %113, %112 ]
  store i32 %115, i32* %6, align 4
  br label %116

116:                                              ; preds = %114
  %117 = load i32, i32* %3, align 4
  %118 = add nsw i32 %117, 1
  store i32 %118, i32* %3, align 4
  br label %96

119:                                              ; preds = %96
  %120 = load i32, i32* %6, align 4
  %121 = icmp eq i32 %120, -1
  br i1 %121, label %122, label %124

122:                                              ; preds = %119
  %123 = call i32 (i8*, ...) @printf(i8* getelementptr inbounds ([3 x i8], [3 x i8]* @.str, i64 0, i64 0))
  br label %127

124:                                              ; preds = %119
  %125 = load i32, i32* %6, align 4
  %126 = call i32 (i8*, ...) @printf(i8* getelementptr inbounds ([3 x i8], [3 x i8]* @.str.1, i64 0, i64 0), i32 %125)
  br label %127

127:                                              ; preds = %124, %122
  ret void
}

; Function Attrs: argmemonly nounwind willreturn
declare void @llvm.memset.p0i8.i64(i8* nocapture writeonly, i8, i64, i1 immarg) #1

declare dso_local i32 @gets(...) #2

; Function Attrs: nounwind readonly
declare dso_local i64 @strlen(i8*) #3

declare dso_local i32 @printf(i8*, ...) #2


!llvm.module.flags = !{!0}
!llvm.ident = !{!1}

!0 = !{i32 1, !"wchar_size", i32 4}
!1 = !{!"clang version 10.0.0-4ubuntu1 "}
